target datalayout = "e-m:e-p270:32:32-p271:32:32-p272:64:64-i64:64-i128:128-f80:128-n8:16:32:64-S128"
target triple = "x86_64-pc-linux-gnu"

%struct.AVCodecContext = type { ptr, i32, i32, ptr, i32, i32, ptr, ptr, ptr, i64, i32, i32, ptr, i32, %struct.AVRational, %struct.AVRational, %struct.AVRational, i32, i32, i32, i32, i32, %struct.AVRational, i32, i32, i32, i32, i32, i32, i32, i32, i32, i32, i32, ptr, ptr, i32, float, float, float, float, float, float, float, float, float, i32, i32, i32, i32, i32, i32, i32, i32, i32, i32, i32, i32, ptr, ptr, ptr, i32, i32, i32, i32, i32, i32, i32, i32, i32, i32, %struct.AVChannelLayout, i32, i32, i32, i32, i32, i32, i32, i32, ptr, i32, i32, i32, float, float, i32, i32, i32, i32, i32, ptr, i64, i64, float, float, i32, i32, ptr, ptr, i32, i32, i32, i32, i32, ptr, ptr, ptr, ptr, i32, i32, [8 x i64], i32, i32, i32, i32, i32, i32, i32, ptr, ptr, i32, i32, i32, i32, i32, i32, i32, i32, i32, i32, ptr, ptr, i32, i32, ptr, ptr, ptr, ptr, i32, i32, i64, i32, i32, i64, ptr, i64, ptr, i32, ptr, i32 }
%struct.AVRational = type { i32, i32 }
%struct.AVChannelLayout = type { i32, i32, %union.anon.0, ptr }
%union.anon.0 = type { i64 }
%struct.MPADecodeContext = type { i32, i32, i32, i32, i32, i32, i32, i32, i32, i32, [1048 x i8], i32, i32, i32, %struct.GetBitContext, %struct.GetBitContext, [2 x [1024 x float]], [2 x i32], [8 x i8], [2 x [36 x [32 x float]]], [2 x [576 x float]], [2 x [2 x %struct.GranuleDef]], i32, i32, i32, ptr, %struct.MPADSPContext, ptr, ptr, i32 }
%struct.GetBitContext = type { ptr, ptr, i32, i32, i32 }
%struct.GranuleDef = type { i8, i32, i32, i32, i32, i8, i8, [3 x i32], [3 x i32], i8, i8, [3 x i32], i32, i32, i32, [40 x i8], [12 x i8], [576 x float] }
%struct.MPADSPContext = type { ptr, ptr, ptr, ptr, ptr, ptr }
%struct.AVPacket = type { ptr, i64, i64, ptr, i32, i32, i32, ptr, i32, i64, i64, ptr, ptr, %struct.AVRational }
%struct.AVFrame = type { [8 x ptr], [8 x i32], ptr, i32, i32, i32, i32, i32, %struct.AVRational, i64, i64, %struct.AVRational, i32, ptr, i32, i32, [8 x ptr], ptr, i32, ptr, i32, i32, i32, i32, i32, i32, i32, i64, ptr, i32, ptr, ptr, i64, i64, i64, i64, ptr, %struct.AVChannelLayout, i64 }

@.str.14 = private unnamed_addr constant [4 x i8] c"TAG\00", align 1
@.str.15 = private unnamed_addr constant [20 x i8] c"discarding ID3 tag\0A\00", align 1
@.str.16 = private unnamed_addr constant [16 x i8] c"Header missing\0A\00", align 1
@.str.17 = private unnamed_addr constant [18 x i8] c"incomplete frame\0A\00", align 1
@.str.18 = private unnamed_addr constant [51 x i8] c"incorrect frame size - multiple frames in buffer?\0A\00", align 1
@.str.19 = private unnamed_addr constant [40 x i8] c"Error while decoding MPEG audio frame.\0A\00", align 1

; Function Attrs: alwaysinline nounwind willreturn memory(none) uwtable
define internal i32 @av_bswap32(i32 noundef %0) #6 {
  %2 = alloca i32, align 4
  store i32 %0, ptr %2, align 4, !tbaa !56
  %3 = load i32, ptr %2, align 4, !tbaa !56
  %4 = shl i32 %3, 8
  %5 = and i32 %4, 65280
  %6 = load i32, ptr %2, align 4, !tbaa !56
  %7 = lshr i32 %6, 8
  %8 = and i32 %7, 255
  %9 = or i32 %5, %8
  %10 = shl i32 %9, 16
  %11 = load i32, ptr %2, align 4, !tbaa !56
  %12 = lshr i32 %11, 16
  %13 = shl i32 %12, 8
  %14 = and i32 %13, 65280
  %15 = load i32, ptr %2, align 4, !tbaa !56
  %16 = lshr i32 %15, 16
  %17 = lshr i32 %16, 8
  %18 = and i32 %17, 255
  %19 = or i32 %14, %18
  %20 = or i32 %10, %19
  ret i32 %20
}

; Function Attrs: nounwind uwtable
define internal i32 @decode_frame(ptr noundef %0, ptr noundef %1, ptr noundef %2, ptr noundef %3) #1 {
  %5 = alloca i32, align 4
  %6 = alloca ptr, align 8
  %7 = alloca ptr, align 8
  %8 = alloca ptr, align 8
  %9 = alloca ptr, align 8
  %10 = alloca ptr, align 8
  %11 = alloca i32, align 4
  %12 = alloca ptr, align 8
  %13 = alloca i32, align 4
  %14 = alloca i32, align 4
  %15 = alloca i32, align 4
  %16 = alloca i32, align 4
  %17 = alloca %struct.AVChannelLayout, align 8
  %18 = alloca %struct.AVChannelLayout, align 8
  store ptr %0, ptr %6, align 8, !tbaa !4
  store ptr %1, ptr %7, align 8, !tbaa !48
  store ptr %2, ptr %8, align 8, !tbaa !49
  store ptr %3, ptr %9, align 8, !tbaa !50
  call void @llvm.lifetime.start.p0(i64 8, ptr %10) #13
  %19 = load ptr, ptr %9, align 8, !tbaa !50
  %20 = getelementptr inbounds nuw %struct.AVPacket, ptr %19, i32 0, i32 3
  %21 = load ptr, ptr %20, align 8, !tbaa !52
  store ptr %21, ptr %10, align 8, !tbaa !54
  call void @llvm.lifetime.start.p0(i64 4, ptr %11) #13
  %22 = load ptr, ptr %9, align 8, !tbaa !50
  %23 = getelementptr inbounds nuw %struct.AVPacket, ptr %22, i32 0, i32 4
  %24 = load i32, ptr %23, align 8, !tbaa !55
  store i32 %24, ptr %11, align 4, !tbaa !56
  call void @llvm.lifetime.start.p0(i64 8, ptr %12) #13
  %25 = load ptr, ptr %6, align 8, !tbaa !4
  %26 = getelementptr inbounds nuw %struct.AVCodecContext, ptr %25, i32 0, i32 6
  %27 = load ptr, ptr %26, align 8, !tbaa !9
  store ptr %27, ptr %12, align 8, !tbaa !29
  call void @llvm.lifetime.start.p0(i64 4, ptr %13) #13
  call void @llvm.lifetime.start.p0(i64 4, ptr %14) #13
  call void @llvm.lifetime.start.p0(i64 4, ptr %15) #13
  store i32 0, ptr %15, align 4, !tbaa !56
  br label %28

28:                                               ; preds = %38, %4
  %29 = load i32, ptr %11, align 4, !tbaa !56
  %30 = icmp ne i32 %29, 0
  br i1 %30, label %31, label %36

31:                                               ; preds = %28
  %32 = load ptr, ptr %10, align 8, !tbaa !54
  %33 = load i8, ptr %32, align 1, !tbaa !57
  %34 = icmp ne i8 %33, 0
  %35 = xor i1 %34, true
  br label %36

36:                                               ; preds = %31, %28
  %37 = phi i1 [ false, %28 ], [ %35, %31 ]
  br i1 %37, label %38, label %45

38:                                               ; preds = %36
  %39 = load ptr, ptr %10, align 8, !tbaa !54
  %40 = getelementptr inbounds nuw i8, ptr %39, i32 1
  store ptr %40, ptr %10, align 8, !tbaa !54
  %41 = load i32, ptr %11, align 4, !tbaa !56
  %42 = add nsw i32 %41, -1
  store i32 %42, ptr %11, align 4, !tbaa !56
  %43 = load i32, ptr %15, align 4, !tbaa !56
  %44 = add nsw i32 %43, 1
  store i32 %44, ptr %15, align 4, !tbaa !56
  br label %28, !llvm.loop !58

45:                                               ; preds = %36
  %46 = load i32, ptr %11, align 4, !tbaa !56
  %47 = icmp slt i32 %46, 4
  br i1 %47, label %48, label %49

48:                                               ; preds = %45
  store i32 -1094995529, ptr %5, align 4
  store i32 1, ptr %16, align 4
  br label %173

49:                                               ; preds = %45
  %50 = load ptr, ptr %10, align 8, !tbaa !54
  %51 = load i32, ptr %50, align 1, !tbaa !57
  %52 = call i32 @av_bswap32(i32 noundef %51) #14
  store i32 %52, ptr %13, align 4, !tbaa !56
  %53 = load i32, ptr %13, align 4, !tbaa !56
  %54 = lshr i32 %53, 8
  %55 = load i32, ptr @.str.14, align 1, !tbaa !57
  %56 = call i32 @av_bswap32(i32 noundef %55) #14
  %57 = lshr i32 %56, 8
  %58 = icmp eq i32 %54, %57
  br i1 %58, label %59, label %64

59:                                               ; preds = %49
  %60 = load ptr, ptr %6, align 8, !tbaa !4
  call void (ptr, i32, ptr, ...) @av_log(ptr noundef %60, i32 noundef 48, ptr noundef @.str.15)
  %61 = load i32, ptr %11, align 4, !tbaa !56
  %62 = load i32, ptr %15, align 4, !tbaa !56
  %63 = add nsw i32 %61, %62
  store i32 %63, ptr %5, align 4
  store i32 1, ptr %16, align 4
  br label %173

64:                                               ; preds = %49
  %65 = load ptr, ptr %12, align 8, !tbaa !29
  %66 = load i32, ptr %13, align 4, !tbaa !56
  %67 = call i32 @avpriv_mpegaudio_decode_header(ptr noundef %65, i32 noundef %66)
  store i32 %67, ptr %14, align 4, !tbaa !56
  %68 = load i32, ptr %14, align 4, !tbaa !56
  %69 = icmp slt i32 %68, 0
  br i1 %69, label %70, label %72

70:                                               ; preds = %64
  %71 = load ptr, ptr %6, align 8, !tbaa !4
  call void (ptr, i32, ptr, ...) @av_log(ptr noundef %71, i32 noundef 16, ptr noundef @.str.16)
  store i32 -1094995529, ptr %5, align 4
  store i32 1, ptr %16, align 4
  br label %173

72:                                               ; preds = %64
  %73 = load i32, ptr %14, align 4, !tbaa !56
  %74 = icmp eq i32 %73, 1
  br i1 %74, label %75, label %78

75:                                               ; preds = %72
  %76 = load ptr, ptr %12, align 8, !tbaa !29
  %77 = getelementptr inbounds nuw %struct.MPADecodeContext, ptr %76, i32 0, i32 0
  store i32 -1, ptr %77, align 16, !tbaa !60
  store i32 -1094995529, ptr %5, align 4
  store i32 1, ptr %16, align 4
  br label %173

78:                                               ; preds = %72
  br label %79

79:                                               ; preds = %78
  %80 = load ptr, ptr %6, align 8, !tbaa !4
  %81 = getelementptr inbounds nuw %struct.AVCodecContext, ptr %80, i32 0, i32 71
  call void @av_channel_layout_uninit(ptr noundef %81)
  %82 = load ptr, ptr %6, align 8, !tbaa !4
  %83 = getelementptr inbounds nuw %struct.AVCodecContext, ptr %82, i32 0, i32 71
  %84 = load ptr, ptr %12, align 8, !tbaa !29
  %85 = getelementptr inbounds nuw %struct.MPADecodeContext, ptr %84, i32 0, i32 6
  %86 = load i32, ptr %85, align 8, !tbaa !61
  %87 = icmp eq i32 %86, 1
  br i1 %87, label %88, label %93

88:                                               ; preds = %79
  %89 = getelementptr inbounds nuw %struct.AVChannelLayout, ptr %17, i32 0, i32 0
  store i32 1, ptr %89, align 8, !tbaa !62
  %90 = getelementptr inbounds nuw %struct.AVChannelLayout, ptr %17, i32 0, i32 1
  store i32 1, ptr %90, align 4, !tbaa !63
  %91 = getelementptr inbounds nuw %struct.AVChannelLayout, ptr %17, i32 0, i32 2
  store i64 4, ptr %91, align 8, !tbaa !57
  %92 = getelementptr inbounds nuw %struct.AVChannelLayout, ptr %17, i32 0, i32 3
  store ptr null, ptr %92, align 8, !tbaa !64
  call void @llvm.memcpy.p0.p0.i64(ptr align 8 %83, ptr align 8 %17, i64 24, i1 false), !tbaa.struct !65
  br label %98

93:                                               ; preds = %79
  %94 = getelementptr inbounds nuw %struct.AVChannelLayout, ptr %18, i32 0, i32 0
  store i32 1, ptr %94, align 8, !tbaa !62
  %95 = getelementptr inbounds nuw %struct.AVChannelLayout, ptr %18, i32 0, i32 1
  store i32 2, ptr %95, align 4, !tbaa !63
  %96 = getelementptr inbounds nuw %struct.AVChannelLayout, ptr %18, i32 0, i32 2
  store i64 3, ptr %96, align 8, !tbaa !57
  %97 = getelementptr inbounds nuw %struct.AVChannelLayout, ptr %18, i32 0, i32 3
  store ptr null, ptr %97, align 8, !tbaa !64
  call void @llvm.memcpy.p0.p0.i64(ptr align 8 %83, ptr align 8 %18, i64 24, i1 false), !tbaa.struct !65
  br label %98

98:                                               ; preds = %93, %88
  %99 = load ptr, ptr %6, align 8, !tbaa !4
  %100 = getelementptr inbounds nuw %struct.AVCodecContext, ptr %99, i32 0, i32 9
  %101 = load i64, ptr %100, align 8, !tbaa !67
  %102 = icmp ne i64 %101, 0
  br i1 %102, label %110, label %103

103:                                              ; preds = %98
  %104 = load ptr, ptr %12, align 8, !tbaa !29
  %105 = getelementptr inbounds nuw %struct.MPADecodeContext, ptr %104, i32 0, i32 5
  %106 = load i32, ptr %105, align 4, !tbaa !68
  %107 = sext i32 %106 to i64
  %108 = load ptr, ptr %6, align 8, !tbaa !4
  %109 = getelementptr inbounds nuw %struct.AVCodecContext, ptr %108, i32 0, i32 9
  store i64 %107, ptr %109, align 8, !tbaa !67
  br label %110

110:                                              ; preds = %103, %98
  %111 = load ptr, ptr %12, align 8, !tbaa !29
  %112 = getelementptr inbounds nuw %struct.MPADecodeContext, ptr %111, i32 0, i32 0
  %113 = load i32, ptr %112, align 16, !tbaa !60
  %114 = icmp sle i32 %113, 0
  br i1 %114, label %115, label %117

115:                                              ; preds = %110
  %116 = load ptr, ptr %6, align 8, !tbaa !4
  call void (ptr, i32, ptr, ...) @av_log(ptr noundef %116, i32 noundef 16, ptr noundef @.str.17)
  store i32 -1094995529, ptr %5, align 4
  store i32 1, ptr %16, align 4
  br label %173

117:                                              ; preds = %110
  %118 = load ptr, ptr %12, align 8, !tbaa !29
  %119 = getelementptr inbounds nuw %struct.MPADecodeContext, ptr %118, i32 0, i32 0
  %120 = load i32, ptr %119, align 16, !tbaa !60
  %121 = load i32, ptr %11, align 4, !tbaa !56
  %122 = icmp slt i32 %120, %121
  br i1 %122, label %123, label %128

123:                                              ; preds = %117
  %124 = load ptr, ptr %6, align 8, !tbaa !4
  call void (ptr, i32, ptr, ...) @av_log(ptr noundef %124, i32 noundef 48, ptr noundef @.str.18)
  %125 = load ptr, ptr %12, align 8, !tbaa !29
  %126 = getelementptr inbounds nuw %struct.MPADecodeContext, ptr %125, i32 0, i32 0
  %127 = load i32, ptr %126, align 16, !tbaa !60
  store i32 %127, ptr %11, align 4, !tbaa !56
  br label %128

128:                                              ; preds = %123, %117
  br label %129

129:                                              ; preds = %128
  %130 = load ptr, ptr %7, align 8, !tbaa !48
  %131 = load ptr, ptr %12, align 8, !tbaa !29
  %132 = getelementptr inbounds nuw %struct.MPADecodeContext, ptr %131, i32 0, i32 28
  store ptr %130, ptr %132, align 16, !tbaa !69
  %133 = load ptr, ptr %12, align 8, !tbaa !29
  %134 = load ptr, ptr %10, align 8, !tbaa !54
  %135 = load i32, ptr %11, align 4, !tbaa !56
  %136 = call i32 @mp_decode_frame(ptr noundef %133, ptr noundef null, ptr noundef %134, i32 noundef %135)
  store i32 %136, ptr %14, align 4, !tbaa !56
  %137 = load i32, ptr %14, align 4, !tbaa !56
  %138 = icmp sge i32 %137, 0
  br i1 %138, label %139, label %153

139:                                              ; preds = %129
  %140 = load ptr, ptr %6, align 8, !tbaa !4
  %141 = getelementptr inbounds nuw %struct.AVCodecContext, ptr %140, i32 0, i32 72
  %142 = load i32, ptr %141, align 8, !tbaa !70
  %143 = load ptr, ptr %12, align 8, !tbaa !29
  %144 = getelementptr inbounds nuw %struct.MPADecodeContext, ptr %143, i32 0, i32 28
  %145 = load ptr, ptr %144, align 16, !tbaa !69
  %146 = getelementptr inbounds nuw %struct.AVFrame, ptr %145, i32 0, i32 5
  store i32 %142, ptr %146, align 8, !tbaa !71
  %147 = load ptr, ptr %8, align 8, !tbaa !49
  store i32 1, ptr %147, align 4, !tbaa !56
  %148 = load ptr, ptr %12, align 8, !tbaa !29
  %149 = getelementptr inbounds nuw %struct.MPADecodeContext, ptr %148, i32 0, i32 3
  %150 = load i32, ptr %149, align 4, !tbaa !76
  %151 = load ptr, ptr %6, align 8, !tbaa !4
  %152 = getelementptr inbounds nuw %struct.AVCodecContext, ptr %151, i32 0, i32 69
  store i32 %150, ptr %152, align 8, !tbaa !77
  br label %167

153:                                              ; preds = %129
  %154 = load ptr, ptr %6, align 8, !tbaa !4
  call void (ptr, i32, ptr, ...) @av_log(ptr noundef %154, i32 noundef 16, ptr noundef @.str.19)
  %155 = load ptr, ptr %8, align 8, !tbaa !49
  store i32 0, ptr %155, align 4, !tbaa !56
  %156 = load i32, ptr %11, align 4, !tbaa !56
  %157 = load ptr, ptr %9, align 8, !tbaa !50
  %158 = getelementptr inbounds nuw %struct.AVPacket, ptr %157, i32 0, i32 4
  %159 = load i32, ptr %158, align 8, !tbaa !55
  %160 = icmp eq i32 %156, %159
  br i1 %160, label %164, label %161

161:                                              ; preds = %153
  %162 = load i32, ptr %14, align 4, !tbaa !56
  %163 = icmp ne i32 %162, -1094995529
  br i1 %163, label %164, label %166

164:                                              ; preds = %161, %153
  %165 = load i32, ptr %14, align 4, !tbaa !56
  store i32 %165, ptr %5, align 4
  store i32 1, ptr %16, align 4
  br label %173

166:                                              ; preds = %161
  br label %167

167:                                              ; preds = %166, %139
  %168 = load ptr, ptr %12, align 8, !tbaa !29
  %169 = getelementptr inbounds nuw %struct.MPADecodeContext, ptr %168, i32 0, i32 0
  store i32 0, ptr %169, align 16, !tbaa !60
  %170 = load i32, ptr %11, align 4, !tbaa !56
  %171 = load i32, ptr %15, align 4, !tbaa !56
  %172 = add nsw i32 %170, %171
  store i32 %172, ptr %5, align 4
  store i32 1, ptr %16, align 4
  br label %173

173:                                              ; preds = %167, %164, %115, %75, %70, %59, %48
  call void @llvm.lifetime.end.p0(i64 4, ptr %15) #13
  call void @llvm.lifetime.end.p0(i64 4, ptr %14) #13
  call void @llvm.lifetime.end.p0(i64 4, ptr %13) #13
  call void @llvm.lifetime.end.p0(i64 8, ptr %12) #13
  call void @llvm.lifetime.end.p0(i64 4, ptr %11) #13
  call void @llvm.lifetime.end.p0(i64 8, ptr %10) #13
  %174 = load i32, ptr %5, align 4
  ret i32 %174
}